ccopy_reg
_reconstructor
p0
(cneat.genome
DefaultGenome
p1
c__builtin__
object
p2
Ntp3
Rp4
(dp5
S'connections'
p6
(dp7
(I-2
I0
tp8
g0
(cneat.genes
DefaultConnectionGene
p9
g2
Ntp10
Rp11
(dp12
S'enabled'
p13
I01
sS'weight'
p14
F0.49099043938143727
sS'key'
p15
g8
sbs(I-3
I0
tp16
g0
(g9
g2
Ntp17
Rp18
(dp19
g13
I01
sg14
F0.5026041074024103
sg15
g16
sbs(I-4
I0
tp20
g0
(g9
g2
Ntp21
Rp22
(dp23
g13
I01
sg14
F1.8727973112940637
sg15
g20
sbssS'cross_fitness'
p24
NsS'nodes'
p25
(dp26
I0
g0
(cneat.genes
DefaultNodeGene
p27
g2
Ntp28
Rp29
(dp30
S'activation'
p31
S'sigmoid'
p32
sS'bias'
p33
F-1.4268285907983134
sS'response'
p34
F1.0
sg15
I0
sS'aggregation'
p35
S'sum'
p36
sbssg15
I3596
sS'fitness'
p37
F60.00999999999663
sb.